target datalayout = "e-m:e-p270:32:32-p271:32:32-p272:64:64-i64:64-i128:128-f80:128-n8:16:32:64-S128"
target triple = "x86_64-unknown-linux-gnu"

%"class.QuantLib::Date" = type { i64 }
%"class.QuantLib::Event.base" = type { ptr }
%"class.QuantLib::DefaultEvent::DefaultSettlement" = type { %"class.QuantLib::Event.base", %"class.QuantLib::Date", %"class.std::map", %"class.QuantLib::Observable" }
%"class.std::map" = type { %"class.std::_Rb_tree.11" }
%"class.std::_Rb_tree.11" = type { %"struct.std::_Rb_tree<QuantLib::Seniority, std::pair<const QuantLib::Seniority, double>, std::_Select1st<std::pair<const QuantLib::Seniority, double>>, std::less<QuantLib::Seniority>>::_Rb_tree_impl" }
%"struct.std::_Rb_tree<QuantLib::Seniority, std::pair<const QuantLib::Seniority, double>, std::_Select1st<std::pair<const QuantLib::Seniority, double>>, std::less<QuantLib::Seniority>>::_Rb_tree_impl" = type { [8 x i8], %"struct.std::_Rb_tree_header" }
%"struct.std::_Rb_tree_header" = type { %"struct.std::_Rb_tree_node_base", i64 }
%"struct.std::_Rb_tree_node_base" = type { i32, ptr, ptr, ptr }
%"class.QuantLib::Observable" = type { ptr, %"class.std::set.0" }
%"class.std::set.0" = type { %"class.std::_Rb_tree.1" }
%"class.std::_Rb_tree.1" = type { %"struct.std::_Rb_tree<QuantLib::Observer *, QuantLib::Observer *, std::_Identity<QuantLib::Observer *>, std::less<QuantLib::Observer *>>::_Rb_tree_impl" }
%"struct.std::_Rb_tree<QuantLib::Observer *, QuantLib::Observer *, std::_Identity<QuantLib::Observer *>, std::less<QuantLib::Observer *>>::_Rb_tree_impl" = type { [8 x i8], %"struct.std::_Rb_tree_header" }
%"struct.std::_Rb_tree_iterator" = type { ptr }
%"struct.std::pair" = type { i32, double }
%"struct.std::_Rb_tree_node.31" = type { %"struct.std::_Rb_tree_node_base", %"struct.__gnu_cxx::__aligned_membuf.32" }
%"struct.__gnu_cxx::__aligned_membuf.32" = type { [16 x i8] }

; Function Attrs: mustprogress nounwind uwtable
define linkonce_odr noundef ptr @_ZN9__gnu_cxx16__aligned_membufISt4pairIKN8QuantLib9SeniorityEdEE7_M_addrEv(ptr noundef nonnull align 8 dereferenceable(16) %this) #4 comdat align 2 {
entry:
  %this.addr = alloca ptr, align 8
  store ptr %this, ptr %this.addr, align 8, !tbaa !3
  %this1 = load ptr, ptr %this.addr, align 8
  %_M_storage = getelementptr inbounds nuw %"struct.__gnu_cxx::__aligned_membuf.32", ptr %this1, i32 0, i32 0
  ret ptr %_M_storage
}

; Function Attrs: mustprogress nounwind uwtable
define linkonce_odr noundef ptr @_ZN9__gnu_cxx16__aligned_membufISt4pairIKN8QuantLib9SeniorityEdEE6_M_ptrEv(ptr noundef nonnull align 8 dereferenceable(16) %this) #4 comdat align 2 {
entry:
  %this.addr = alloca ptr, align 8
  store ptr %this, ptr %this.addr, align 8, !tbaa !3
  %this1 = load ptr, ptr %this.addr, align 8
  %call = call noundef ptr @_ZN9__gnu_cxx16__aligned_membufISt4pairIKN8QuantLib9SeniorityEdEE7_M_addrEv(ptr noundef nonnull align 8 dereferenceable(16) %this1) #13
  ret ptr %call
}

; Function Attrs: mustprogress nounwind uwtable
define linkonce_odr void @_ZNSt17_Rb_tree_iteratorISt4pairIKN8QuantLib9SeniorityEdEEC2EPSt18_Rb_tree_node_base(ptr noundef nonnull align 8 dereferenceable(8) %this, ptr noundef %__x) unnamed_addr #4 comdat align 2 {
entry:
  %this.addr = alloca ptr, align 8
  %__x.addr = alloca ptr, align 8
  store ptr %this, ptr %this.addr, align 8, !tbaa !3
  store ptr %__x, ptr %__x.addr, align 8, !tbaa !3
  %this1 = load ptr, ptr %this.addr, align 8
  %_M_node = getelementptr inbounds nuw %"struct.std::_Rb_tree_iterator", ptr %this1, i32 0, i32 0
  %0 = load ptr, ptr %__x.addr, align 8, !tbaa !3
  store ptr %0, ptr %_M_node, align 8, !tbaa !20
  ret void
}

; Function Attrs: mustprogress nounwind uwtable
define linkonce_odr noundef ptr @_ZNSt13_Rb_tree_nodeISt4pairIKN8QuantLib9SeniorityEdEE9_M_valptrEv(ptr noundef nonnull align 8 dereferenceable(48) %this) #4 comdat align 2 {
entry:
  %this.addr = alloca ptr, align 8
  store ptr %this, ptr %this.addr, align 8, !tbaa !3
  %this1 = load ptr, ptr %this.addr, align 8
  %_M_storage = getelementptr inbounds nuw %"struct.std::_Rb_tree_node.31", ptr %this1, i32 0, i32 1
  %call = call noundef ptr @_ZN9__gnu_cxx16__aligned_membufISt4pairIKN8QuantLib9SeniorityEdEE6_M_ptrEv(ptr noundef nonnull align 8 dereferenceable(16) %_M_storage) #13
  ret ptr %call
}

; Function Attrs: mustprogress nounwind uwtable
define linkonce_odr ptr @_ZNSt8_Rb_treeIN8QuantLib9SeniorityESt4pairIKS1_dESt10_Select1stIS4_ESt4lessIS1_ESaIS4_EE3endEv(ptr noundef nonnull align 8 dereferenceable(48) %this) #4 comdat align 2 {
entry:
  %retval = alloca %"struct.std::_Rb_tree_iterator", align 8
  %this.addr = alloca ptr, align 8
  store ptr %this, ptr %this.addr, align 8, !tbaa !3
  %this1 = load ptr, ptr %this.addr, align 8
  %_M_impl = getelementptr inbounds nuw %"class.std::_Rb_tree.11", ptr %this1, i32 0, i32 0
  %add.ptr = getelementptr inbounds i8, ptr %_M_impl, i64 8
  %_M_header = getelementptr inbounds nuw %"struct.std::_Rb_tree_header", ptr %add.ptr, i32 0, i32 0
  call void @_ZNSt17_Rb_tree_iteratorISt4pairIKN8QuantLib9SeniorityEdEEC2EPSt18_Rb_tree_node_base(ptr noundef nonnull align 8 dereferenceable(8) %retval, ptr noundef %_M_header) #13
  %coerce.dive = getelementptr inbounds nuw %"struct.std::_Rb_tree_iterator", ptr %retval, i32 0, i32 0
  %0 = load ptr, ptr %coerce.dive, align 8
  ret ptr %0
}

; Function Attrs: mustprogress nounwind uwtable
define linkonce_odr ptr @_ZNSt8_Rb_treeIN8QuantLib9SeniorityESt4pairIKS1_dESt10_Select1stIS4_ESt4lessIS1_ESaIS4_EE5beginEv(ptr noundef nonnull align 8 dereferenceable(48) %this) #4 comdat align 2 {
entry:
  %retval = alloca %"struct.std::_Rb_tree_iterator", align 8
  %this.addr = alloca ptr, align 8
  store ptr %this, ptr %this.addr, align 8, !tbaa !3
  %this1 = load ptr, ptr %this.addr, align 8
  %_M_impl = getelementptr inbounds nuw %"class.std::_Rb_tree.11", ptr %this1, i32 0, i32 0
  %add.ptr = getelementptr inbounds i8, ptr %_M_impl, i64 8
  %_M_header = getelementptr inbounds nuw %"struct.std::_Rb_tree_header", ptr %add.ptr, i32 0, i32 0
  %_M_left = getelementptr inbounds nuw %"struct.std::_Rb_tree_node_base", ptr %_M_header, i32 0, i32 2
  %0 = load ptr, ptr %_M_left, align 8, !tbaa !65
  call void @_ZNSt17_Rb_tree_iteratorISt4pairIKN8QuantLib9SeniorityEdEEC2EPSt18_Rb_tree_node_base(ptr noundef nonnull align 8 dereferenceable(8) %retval, ptr noundef %0) #13
  %coerce.dive = getelementptr inbounds nuw %"struct.std::_Rb_tree_iterator", ptr %retval, i32 0, i32 0
  %1 = load ptr, ptr %coerce.dive, align 8
  ret ptr %1
}

; Function Attrs: mustprogress nounwind uwtable
define linkonce_odr void @_ZN8QuantLib5EventD2Ev(ptr noundef nonnull align 8 dereferenceable(8) %this, ptr noundef %vtt) unnamed_addr #4 comdat align 2 {
entry:
  %this.addr = alloca ptr, align 8
  %vtt.addr = alloca ptr, align 8
  store ptr %this, ptr %this.addr, align 8, !tbaa !3
  store ptr %vtt, ptr %vtt.addr, align 8, !tbaa !3
  ret void
}

; Function Attrs: mustprogress nounwind uwtable
define linkonce_odr noundef nonnull align 8 dereferenceable(8) ptr @_ZNSt17_Rb_tree_iteratorISt4pairIKN8QuantLib9SeniorityEdEEppEv(ptr noundef nonnull align 8 dereferenceable(8) %this) #4 comdat align 2 {
entry:
  %this.addr = alloca ptr, align 8
  store ptr %this, ptr %this.addr, align 8, !tbaa !3
  %this1 = load ptr, ptr %this.addr, align 8
  %_M_node = getelementptr inbounds nuw %"struct.std::_Rb_tree_iterator", ptr %this1, i32 0, i32 0
  %0 = load ptr, ptr %_M_node, align 8, !tbaa !20
  %call = call noundef ptr @_ZSt18_Rb_tree_incrementPSt18_Rb_tree_node_base(ptr noundef %0) #10
  %_M_node2 = getelementptr inbounds nuw %"struct.std::_Rb_tree_iterator", ptr %this1, i32 0, i32 0
  store ptr %call, ptr %_M_node2, align 8, !tbaa !20
  ret ptr %this1
}

; Function Attrs: mustprogress nounwind uwtable
define linkonce_odr noundef nonnull align 8 dereferenceable(16) ptr @_ZNKSt17_Rb_tree_iteratorISt4pairIKN8QuantLib9SeniorityEdEEdeEv(ptr noundef nonnull align 8 dereferenceable(8) %this) #4 comdat align 2 {
entry:
  %this.addr = alloca ptr, align 8
  store ptr %this, ptr %this.addr, align 8, !tbaa !3
  %this1 = load ptr, ptr %this.addr, align 8
  %_M_node = getelementptr inbounds nuw %"struct.std::_Rb_tree_iterator", ptr %this1, i32 0, i32 0
  %0 = load ptr, ptr %_M_node, align 8, !tbaa !20
  %call = call noundef ptr @_ZNSt13_Rb_tree_nodeISt4pairIKN8QuantLib9SeniorityEdEE9_M_valptrEv(ptr noundef nonnull align 8 dereferenceable(48) %0)
  ret ptr %call
}

; Function Attrs: mustprogress nounwind uwtable
define linkonce_odr noundef zeroext i1 @_ZStneRKSt17_Rb_tree_iteratorISt4pairIKN8QuantLib9SeniorityEdEES7_(ptr noundef nonnull align 8 dereferenceable(8) %__x, ptr noundef nonnull align 8 dereferenceable(8) %__y) #4 comdat {
entry:
  %__x.addr = alloca ptr, align 8
  %__y.addr = alloca ptr, align 8
  store ptr %__x, ptr %__x.addr, align 8, !tbaa !3
  store ptr %__y, ptr %__y.addr, align 8, !tbaa !3
  %0 = load ptr, ptr %__x.addr, align 8, !tbaa !3
  %_M_node = getelementptr inbounds nuw %"struct.std::_Rb_tree_iterator", ptr %0, i32 0, i32 0
  %1 = load ptr, ptr %_M_node, align 8, !tbaa !20
  %2 = load ptr, ptr %__y.addr, align 8, !tbaa !3
  %_M_node1 = getelementptr inbounds nuw %"struct.std::_Rb_tree_iterator", ptr %2, i32 0, i32 0
  %3 = load ptr, ptr %_M_node1, align 8, !tbaa !20
  %cmp = icmp ne ptr %1, %3
  ret i1 %cmp
}

; Function Attrs: mustprogress nounwind uwtable
define linkonce_odr ptr @_ZNSt3mapIN8QuantLib9SeniorityEdSt4lessIS1_ESaISt4pairIKS1_dEEE3endEv(ptr noundef nonnull align 8 dereferenceable(48) %this) #4 comdat align 2 {
entry:
  %retval = alloca %"struct.std::_Rb_tree_iterator", align 8
  %this.addr = alloca ptr, align 8
  store ptr %this, ptr %this.addr, align 8, !tbaa !3
  %this1 = load ptr, ptr %this.addr, align 8
  %_M_t = getelementptr inbounds nuw %"class.std::map", ptr %this1, i32 0, i32 0
  %call = call ptr @_ZNSt8_Rb_treeIN8QuantLib9SeniorityESt4pairIKS1_dESt10_Select1stIS4_ESt4lessIS1_ESaIS4_EE3endEv(ptr noundef nonnull align 8 dereferenceable(48) %_M_t) #13
  %coerce.dive = getelementptr inbounds nuw %"struct.std::_Rb_tree_iterator", ptr %retval, i32 0, i32 0
  store ptr %call, ptr %coerce.dive, align 8
  %coerce.dive2 = getelementptr inbounds nuw %"struct.std::_Rb_tree_iterator", ptr %retval, i32 0, i32 0
  %0 = load ptr, ptr %coerce.dive2, align 8
  ret ptr %0
}

; Function Attrs: mustprogress nounwind uwtable
define linkonce_odr ptr @_ZNSt3mapIN8QuantLib9SeniorityEdSt4lessIS1_ESaISt4pairIKS1_dEEE5beginEv(ptr noundef nonnull align 8 dereferenceable(48) %this) #4 comdat align 2 {
entry:
  %retval = alloca %"struct.std::_Rb_tree_iterator", align 8
  %this.addr = alloca ptr, align 8
  store ptr %this, ptr %this.addr, align 8, !tbaa !3
  %this1 = load ptr, ptr %this.addr, align 8
  %_M_t = getelementptr inbounds nuw %"class.std::map", ptr %this1, i32 0, i32 0
  %call = call ptr @_ZNSt8_Rb_treeIN8QuantLib9SeniorityESt4pairIKS1_dESt10_Select1stIS4_ESt4lessIS1_ESaIS4_EE5beginEv(ptr noundef nonnull align 8 dereferenceable(48) %_M_t) #13
  %coerce.dive = getelementptr inbounds nuw %"struct.std::_Rb_tree_iterator", ptr %retval, i32 0, i32 0
  store ptr %call, ptr %coerce.dive, align 8
  %coerce.dive2 = getelementptr inbounds nuw %"struct.std::_Rb_tree_iterator", ptr %retval, i32 0, i32 0
  %0 = load ptr, ptr %coerce.dive2, align 8
  ret ptr %0
}

; Function Attrs: inlinehint mustprogress nounwind uwtable
define linkonce_odr void @_ZN8QuantLib5EventC2Ev(ptr noundef nonnull align 8 dereferenceable(8) %this, ptr noundef %vtt) unnamed_addr #8 comdat align 2 {
entry:
  %this.addr = alloca ptr, align 8
  %vtt.addr = alloca ptr, align 8
  store ptr %this, ptr %this.addr, align 8, !tbaa !3
  store ptr %vtt, ptr %vtt.addr, align 8, !tbaa !3
  %this1 = load ptr, ptr %this.addr, align 8
  %vtt2 = load ptr, ptr %vtt.addr, align 8
  %0 = load ptr, ptr %vtt2, align 8
  store ptr %0, ptr %this1, align 8, !tbaa !7
  %1 = getelementptr inbounds ptr, ptr %vtt2, i64 1
  %2 = load ptr, ptr %1, align 8
  %vtable = load ptr, ptr %this1, align 8, !tbaa !7
  %vbase.offset.ptr = getelementptr i8, ptr %vtable, i64 -24
  %vbase.offset = load i64, ptr %vbase.offset.ptr, align 8
  %add.ptr = getelementptr inbounds i8, ptr %this1, i64 %vbase.offset
  store ptr %2, ptr %add.ptr, align 8, !tbaa !7
  ret void
}

; Function Attrs: mustprogress uwtable
define void @_ZN8QuantLib12DefaultEvent17DefaultSettlementC2ERKNS_4DateENS_9SeniorityEd(ptr noundef nonnull align 8 dereferenceable(64) %this, ptr noundef %vtt, ptr noundef nonnull align 8 dereferenceable(8) %date, i32 noundef %seniority, double noundef %recoveryRate) unnamed_addr #5 align 2 personality ptr @__gxx_personality_v0 {
entry:
  %this.addr = alloca ptr, align 8
  %vtt.addr = alloca ptr, align 8
  %date.addr = alloca ptr, align 8
  %seniority.addr = alloca i32, align 4
  %recoveryRate.addr = alloca double, align 8
  %exn.slot = alloca ptr, align 8
  %ehselector.slot = alloca i32, align 4
  %__range2 = alloca ptr, align 8
  %__begin2 = alloca %"struct.std::_Rb_tree_iterator", align 8
  %__end2 = alloca %"struct.std::_Rb_tree_iterator", align 8
  %i = alloca ptr, align 8
  store ptr %this, ptr %this.addr, align 8, !tbaa !3
  store ptr %vtt, ptr %vtt.addr, align 8, !tbaa !3
  store ptr %date, ptr %date.addr, align 8, !tbaa !3
  store i32 %seniority, ptr %seniority.addr, align 4, !tbaa !12
  store double %recoveryRate, ptr %recoveryRate.addr, align 8, !tbaa !16
  %this1 = load ptr, ptr %this.addr, align 8
  %vtt2 = load ptr, ptr %vtt.addr, align 8
  %0 = getelementptr inbounds ptr, ptr %vtt2, i64 1
  call void @_ZN8QuantLib5EventC2Ev(ptr noundef nonnull align 8 dereferenceable(8) %this1, ptr noundef %0) #13
  %1 = load ptr, ptr %vtt2, align 8
  store ptr %1, ptr %this1, align 8, !tbaa !7
  %2 = getelementptr inbounds ptr, ptr %vtt2, i64 3
  %3 = load ptr, ptr %2, align 8
  %vtable = load ptr, ptr %this1, align 8, !tbaa !7
  %vbase.offset.ptr = getelementptr i8, ptr %vtable, i64 -24
  %vbase.offset = load i64, ptr %vbase.offset.ptr, align 8
  %add.ptr = getelementptr inbounds i8, ptr %this1, i64 %vbase.offset
  store ptr %3, ptr %add.ptr, align 8, !tbaa !7
  %settlementDate_ = getelementptr inbounds nuw %"class.QuantLib::DefaultEvent::DefaultSettlement", ptr %this1, i32 0, i32 1
  %4 = load ptr, ptr %date.addr, align 8, !tbaa !3
  call void @llvm.memcpy.p0.p0.i64(ptr align 8 %settlementDate_, ptr align 8 %4, i64 8, i1 false), !tbaa.struct !9
  %recoveryRates_ = getelementptr inbounds nuw %"class.QuantLib::DefaultEvent::DefaultSettlement", ptr %this1, i32 0, i32 2
  invoke void @_ZN8QuantLib15makeIsdaConvMapEv(ptr dead_on_unwind writable sret(%"class.std::map") align 8 %recoveryRates_)
          to label %invoke.cont unwind label %lpad

invoke.cont:                                      ; preds = %entry
  %5 = load i32, ptr %seniority.addr, align 4, !tbaa !12
  %cmp = icmp eq i32 %5, 5
  br i1 %cmp, label %if.then, label %if.else

if.then:                                          ; preds = %invoke.cont
  call void @llvm.lifetime.start.p0(i64 8, ptr %__range2) #13
  %recoveryRates_3 = getelementptr inbounds nuw %"class.QuantLib::DefaultEvent::DefaultSettlement", ptr %this1, i32 0, i32 2
  store ptr %recoveryRates_3, ptr %__range2, align 8, !tbaa !3
  call void @llvm.lifetime.start.p0(i64 8, ptr %__begin2) #13
  %6 = load ptr, ptr %__range2, align 8, !tbaa !3
  %call = call ptr @_ZNSt3mapIN8QuantLib9SeniorityEdSt4lessIS1_ESaISt4pairIKS1_dEEE5beginEv(ptr noundef nonnull align 8 dereferenceable(48) %6) #13
  %coerce.dive = getelementptr inbounds nuw %"struct.std::_Rb_tree_iterator", ptr %__begin2, i32 0, i32 0
  store ptr %call, ptr %coerce.dive, align 8
  call void @llvm.lifetime.start.p0(i64 8, ptr %__end2) #13
  %7 = load ptr, ptr %__range2, align 8, !tbaa !3
  %call4 = call ptr @_ZNSt3mapIN8QuantLib9SeniorityEdSt4lessIS1_ESaISt4pairIKS1_dEEE3endEv(ptr noundef nonnull align 8 dereferenceable(48) %7) #13
  %coerce.dive5 = getelementptr inbounds nuw %"struct.std::_Rb_tree_iterator", ptr %__end2, i32 0, i32 0
  store ptr %call4, ptr %coerce.dive5, align 8
  br label %for.cond

for.cond:                                         ; preds = %for.inc, %if.then
  %call6 = call noundef zeroext i1 @_ZStneRKSt17_Rb_tree_iteratorISt4pairIKN8QuantLib9SeniorityEdEES7_(ptr noundef nonnull align 8 dereferenceable(8) %__begin2, ptr noundef nonnull align 8 dereferenceable(8) %__end2) #13
  br i1 %call6, label %for.body, label %for.cond.cleanup

for.cond.cleanup:                                 ; preds = %for.cond
  call void @llvm.lifetime.end.p0(i64 8, ptr %__end2) #13
  call void @llvm.lifetime.end.p0(i64 8, ptr %__begin2) #13
  call void @llvm.lifetime.end.p0(i64 8, ptr %__range2) #13
  br label %for.end

lpad:                                             ; preds = %entry
  %8 = landingpad { ptr, i32 }
          cleanup
  %9 = extractvalue { ptr, i32 } %8, 0
  store ptr %9, ptr %exn.slot, align 8
  %10 = extractvalue { ptr, i32 } %8, 1
  store i32 %10, ptr %ehselector.slot, align 4
  br label %ehcleanup

for.body:                                         ; preds = %for.cond
  call void @llvm.lifetime.start.p0(i64 8, ptr %i) #13
  %call7 = call noundef nonnull align 8 dereferenceable(16) ptr @_ZNKSt17_Rb_tree_iteratorISt4pairIKN8QuantLib9SeniorityEdEEdeEv(ptr noundef nonnull align 8 dereferenceable(8) %__begin2) #13
  store ptr %call7, ptr %i, align 8, !tbaa !3
  %11 = load double, ptr %recoveryRate.addr, align 8, !tbaa !16
  %12 = load ptr, ptr %i, align 8, !tbaa !3
  %second = getelementptr inbounds nuw %"struct.std::pair", ptr %12, i32 0, i32 1
  store double %11, ptr %second, align 8, !tbaa !18
  call void @llvm.lifetime.end.p0(i64 8, ptr %i) #13
  br label %for.inc

for.inc:                                          ; preds = %for.body
  %call8 = call noundef nonnull align 8 dereferenceable(8) ptr @_ZNSt17_Rb_tree_iteratorISt4pairIKN8QuantLib9SeniorityEdEEppEv(ptr noundef nonnull align 8 dereferenceable(8) %__begin2) #13
  br label %for.cond

for.end:                                          ; preds = %for.cond.cleanup
  br label %if.end

if.else:                                          ; preds = %invoke.cont
  %13 = load double, ptr %recoveryRate.addr, align 8, !tbaa !16
  %recoveryRates_9 = getelementptr inbounds nuw %"class.QuantLib::DefaultEvent::DefaultSettlement", ptr %this1, i32 0, i32 2
  %call12 = invoke noundef nonnull align 8 dereferenceable(8) ptr @_ZNSt3mapIN8QuantLib9SeniorityEdSt4lessIS1_ESaISt4pairIKS1_dEEEixERS5_(ptr noundef nonnull align 8 dereferenceable(48) %recoveryRates_9, ptr noundef nonnull align 4 dereferenceable(4) %seniority.addr)
          to label %invoke.cont11 unwind label %lpad10

invoke.cont11:                                    ; preds = %if.else
  store double %13, ptr %call12, align 8, !tbaa !16
  br label %if.end

lpad10:                                           ; preds = %if.else
  %14 = landingpad { ptr, i32 }
          cleanup
  %15 = extractvalue { ptr, i32 } %14, 0
  store ptr %15, ptr %exn.slot, align 8
  %16 = extractvalue { ptr, i32 } %14, 1
  store i32 %16, ptr %ehselector.slot, align 4
  call void @_ZNSt3mapIN8QuantLib9SeniorityEdSt4lessIS1_ESaISt4pairIKS1_dEEED2Ev(ptr noundef nonnull align 8 dereferenceable(48) %recoveryRates_) #13
  br label %ehcleanup

if.end:                                           ; preds = %invoke.cont11, %for.end
  ret void

ehcleanup:                                        ; preds = %lpad10, %lpad
  %17 = getelementptr inbounds ptr, ptr %vtt2, i64 1
  call void @_ZN8QuantLib5EventD2Ev(ptr noundef nonnull align 8 dereferenceable(8) %this1, ptr noundef %17) #13
  br label %eh.resume

eh.resume:                                        ; preds = %ehcleanup
  %exn = load ptr, ptr %exn.slot, align 8
  %sel = load i32, ptr %ehselector.slot, align 4
  %lpad.val = insertvalue { ptr, i32 } poison, ptr %exn, 0
  %lpad.val13 = insertvalue { ptr, i32 } %lpad.val, i32 %sel, 1
  resume { ptr, i32 } %lpad.val13
}