; Function Attrs: mustprogress uwtable
define void @_ZN8QuantLib12DefaultEvent17DefaultSettlementC2ERKNS_4DateENS_9SeniorityEd(ptr noundef nonnull align 8 dereferenceable(64) %this, ptr nocapture noundef readonly %vtt, ptr nocapture noundef nonnull readonly align 8 dereferenceable(8) %date, i32 noundef %seniority, double noundef %recoveryRate) unnamed_addr #4 align 2 personality ptr @__gxx_personality_v0 {
entry:
  %seniority.addr = alloca i32, align 4
  store i32 %seniority, ptr %seniority.addr, align 4, !tbaa !32
  %0 = getelementptr inbounds i8, ptr %vtt, i64 8
  %1 = load ptr, ptr %0, align 8
  store ptr %1, ptr %this, align 8, !tbaa !14
  %2 = getelementptr inbounds i8, ptr %vtt, i64 16
  %3 = load ptr, ptr %2, align 8
  %vbase.offset.ptr.i = getelementptr i8, ptr %1, i64 -24
  %vbase.offset.i = load i64, ptr %vbase.offset.ptr.i, align 8
  %add.ptr.i = getelementptr inbounds i8, ptr %this, i64 %vbase.offset.i
  store ptr %3, ptr %add.ptr.i, align 8, !tbaa !14
  %4 = load ptr, ptr %vtt, align 8
  store ptr %4, ptr %this, align 8, !tbaa !14
  %5 = getelementptr inbounds i8, ptr %vtt, i64 24
  %6 = load ptr, ptr %5, align 8
  %vbase.offset.ptr = getelementptr i8, ptr %4, i64 -24
  %vbase.offset = load i64, ptr %vbase.offset.ptr, align 8
  %add.ptr = getelementptr inbounds i8, ptr %this, i64 %vbase.offset
  store ptr %6, ptr %add.ptr, align 8, !tbaa !14
  %settlementDate_ = getelementptr inbounds nuw i8, ptr %this, i64 8
  %7 = load i64, ptr %date, align 8, !tbaa !8
  store i64 %7, ptr %settlementDate_, align 8, !tbaa !8
  %recoveryRates_ = getelementptr inbounds nuw i8, ptr %this, i64 16
  tail call void @_ZN8QuantLib15makeIsdaConvMapEv(ptr dead_on_unwind nonnull writable sret(%"class.std::map") align 8 %recoveryRates_)
  %cmp = icmp eq i32 %seniority, 5
  br i1 %cmp, label %if.then, label %if.else

if.then:                                          ; preds = %entry
  %_M_left.i.i = getelementptr inbounds i8, ptr %this, i64 40
  %8 = load ptr, ptr %_M_left.i.i, align 8, !tbaa !23
  %add.ptr.i.i = getelementptr inbounds i8, ptr %this, i64 24
  %cmp.i.not6 = icmp eq ptr %8, %add.ptr.i.i
  br i1 %cmp.i.not6, label %if.end, label %for.body

for.body:                                         ; preds = %if.then, %for.body
  %__begin2.sroa.0.07 = phi ptr [ %call.i, %for.body ], [ %8, %if.then ]
  %second = getelementptr inbounds nuw i8, ptr %__begin2.sroa.0.07, i64 40
  store double %recoveryRate, ptr %second, align 8, !tbaa !35
  %call.i = tail call noundef ptr @_ZSt18_Rb_tree_incrementPSt18_Rb_tree_node_base(ptr noundef %__begin2.sroa.0.07) #30
  %cmp.i.not = icmp eq ptr %call.i, %add.ptr.i.i
  br i1 %cmp.i.not, label %if.end, label %for.body

if.else:                                          ; preds = %entry
  %call12 = invoke noundef nonnull align 8 dereferenceable(8) ptr @_ZNSt3mapIN8QuantLib9SeniorityEdSt4lessIS1_ESaISt4pairIKS1_dEEEixERS5_(ptr noundef nonnull align 8 dereferenceable(48) %recoveryRates_, ptr noundef nonnull align 4 dereferenceable(4) %seniority.addr)
          to label %invoke.cont11 unwind label %lpad10

invoke.cont11:                                    ; preds = %if.else
  store double %recoveryRate, ptr %call12, align 8, !tbaa !38
  br label %if.end

lpad10:                                           ; preds = %if.else
  %9 = landingpad { ptr, i32 }
          cleanup
  call void @_ZNSt3mapIN8QuantLib9SeniorityEdSt4lessIS1_ESaISt4pairIKS1_dEEED2Ev(ptr noundef nonnull align 8 dereferenceable(48) %recoveryRates_) #26
  resume { ptr, i32 } %9

if.end:                                           ; preds = %for.body, %if.then, %invoke.cont11
  ret void
}